target datalayout = "e-m:e-p270:32:32-p271:32:32-p272:64:64-i64:64-i128:128-f80:128-n8:16:32:64-S128"
target triple = "x86_64-pc-linux-gnu"

%struct.pointf_s = type { double, double }
%struct.agxbuf = type { %union.anon.2 }
%union.anon.2 = type { %struct.anon }
%struct.anon = type { ptr, i64, i64, [7 x i8], i8 }
%struct.boxf = type { %struct.pointf_s, %struct.pointf_s }
%struct.GVJ_s = type { ptr, ptr, ptr, ptr, ptr, ptr, i32, ptr, ptr, ptr, ptr, i64, i64, ptr, i32, %struct.gvplugin_active_render_s, %struct.gvplugin_active_device_s, %struct.gvplugin_active_loadimage_t, ptr, %struct.pointf_s, i8, ptr, i32, ptr, i8, ptr, i32, i32, i32, %struct.point, %struct.point, %struct.point, %struct.point, %struct.point, i32, %struct.boxf, %struct.pointf_s, %struct.boxf, %struct.boxf, %struct.pointf_s, %struct.pointf_s, double, i32, %struct.pointf_s, %struct.boxf, %struct.pointf_s, %struct.pointf_s, i32, i32, %struct.box, %struct.box, %struct.pointf_s, %struct.pointf_s, %struct.pointf_s, i8, i8, i8, i8, i8, i8, %struct.pointf_s, %struct.pointf_s, ptr, ptr, ptr, ptr, ptr, ptr, i64, ptr }
%struct.gvplugin_active_render_s = type { ptr, i32, ptr, ptr }
%struct.gvplugin_active_device_s = type { ptr, i32, ptr, ptr }
%struct.gvplugin_active_loadimage_t = type { ptr, i32, ptr }
%struct.point = type { i32, i32 }
%struct.box = type { %struct.point, %struct.point }
%struct.obj_state_s = type { ptr, i32, %union.anon, i32, %struct.color_s, %struct.color_s, %struct.color_s, i32, double, i32, i32, double, ptr, double, double, double, ptr, ptr, ptr, ptr, ptr, ptr, ptr, ptr, ptr, ptr, ptr, ptr, ptr, ptr, ptr, ptr, ptr, i16, i32, i64, ptr, i64, ptr, ptr, i32, ptr, i32, ptr }
%union.anon = type { ptr }
%struct.color_s = type { %union.anon.0, i32 }
%union.anon.0 = type { [4 x double] }
%struct.usershape_s = type { %struct.dtlink_s_, ptr, i32, i8, i8, ptr, i32, ptr, double, double, double, double, i32, ptr, i64, ptr }
%struct.dtlink_s_ = type { ptr, %union.anon.1 }
%union.anon.1 = type { ptr }
%struct.xdot_state_t = type { ptr, ptr, ptr, ptr, ptr, ptr, ptr, ptr, ptr, ptr, i16, ptr, double }

@.str = private unnamed_addr constant [3 x i8] c"I \00", align 1
@.str.1 = private unnamed_addr constant [1 x i8] zeroinitializer, align 1
@xd = internal global ptr null, align 8
@.str.15 = private unnamed_addr constant [11 x i8] c"%s%zu -%s \00", align 1

; Function Attrs: inlinehint nounwind uwtable
define internal zeroext i1 @agxbuf_is_inline(ptr noundef %0) #2 {
  %2 = alloca ptr, align 8
  store ptr %0, ptr %2, align 8, !tbaa !41
  %3 = load ptr, ptr %2, align 8, !tbaa !41
  %4 = getelementptr inbounds nuw %struct.agxbuf, ptr %3, i32 0, i32 0
  %5 = getelementptr inbounds nuw %struct.anon, ptr %4, i32 0, i32 4
  %6 = load i8, ptr %5, align 1, !tbaa !59
  %7 = zext i8 %6 to i32
  %8 = icmp slt i32 %7, 255
  ret i1 %8
}

; Function Attrs: inlinehint nounwind uwtable
define internal i64 @agxblen(ptr noundef %0) #2 {
  %2 = alloca i64, align 8
  %3 = alloca ptr, align 8
  store ptr %0, ptr %3, align 8, !tbaa !41
  %4 = load ptr, ptr %3, align 8, !tbaa !41
  %5 = call zeroext i1 @agxbuf_is_inline(ptr noundef %4)
  br i1 %5, label %6, label %14

6:                                                ; preds = %1
  %7 = load ptr, ptr %3, align 8, !tbaa !41
  %8 = getelementptr inbounds nuw %struct.agxbuf, ptr %7, i32 0, i32 0
  %9 = getelementptr inbounds nuw %struct.anon, ptr %8, i32 0, i32 4
  %10 = load i8, ptr %9, align 1, !tbaa !59
  %11 = zext i8 %10 to i32
  %12 = sub nsw i32 %11, 0
  %13 = sext i32 %12 to i64
  store i64 %13, ptr %2, align 8
  br label %19

14:                                               ; preds = %1
  %15 = load ptr, ptr %3, align 8, !tbaa !41
  %16 = getelementptr inbounds nuw %struct.agxbuf, ptr %15, i32 0, i32 0
  %17 = getelementptr inbounds nuw %struct.anon, ptr %16, i32 0, i32 1
  %18 = load i64, ptr %17, align 8, !tbaa !59
  store i64 %18, ptr %2, align 8
  br label %19

19:                                               ; preds = %14, %6
  %20 = load i64, ptr %2, align 8
  ret i64 %20
}

; Function Attrs: inlinehint nounwind uwtable
define internal i64 @agxbsizeof(ptr noundef %0) #2 {
  %2 = alloca i64, align 8
  %3 = alloca ptr, align 8
  store ptr %0, ptr %3, align 8, !tbaa !41
  %4 = load ptr, ptr %3, align 8, !tbaa !41
  %5 = call zeroext i1 @agxbuf_is_inline(ptr noundef %4)
  br i1 %5, label %6, label %7

6:                                                ; preds = %1
  store i64 31, ptr %2, align 8
  br label %12

7:                                                ; preds = %1
  %8 = load ptr, ptr %3, align 8, !tbaa !41
  %9 = getelementptr inbounds nuw %struct.agxbuf, ptr %8, i32 0, i32 0
  %10 = getelementptr inbounds nuw %struct.anon, ptr %9, i32 0, i32 2
  %11 = load i64, ptr %10, align 8, !tbaa !59
  store i64 %11, ptr %2, align 8
  br label %12

12:                                               ; preds = %7, %6
  %13 = load i64, ptr %2, align 8
  ret i64 %13
}

; Function Attrs: nounwind uwtable
define internal void @xdot_str_xbuf(ptr noundef %0, ptr noundef %1, ptr noundef %2) #0 {
  %4 = alloca ptr, align 8
  %5 = alloca ptr, align 8
  %6 = alloca ptr, align 8
  store ptr %0, ptr %4, align 8, !tbaa !41
  store ptr %1, ptr %5, align 8, !tbaa !50
  store ptr %2, ptr %6, align 8, !tbaa !50
  %7 = load ptr, ptr %4, align 8, !tbaa !41
  %8 = load ptr, ptr %5, align 8, !tbaa !50
  %9 = load ptr, ptr %6, align 8, !tbaa !50
  %10 = call i64 @strlen(ptr noundef %9) #15
  %11 = load ptr, ptr %6, align 8, !tbaa !50
  %12 = call i32 (ptr, ptr, ...) @agxbprint(ptr noundef %7, ptr noundef @.str.15, ptr noundef %8, i64 noundef %10, ptr noundef %11)
  ret void
}

; Function Attrs: inlinehint nounwind uwtable
define internal i64 @agxbput_n(ptr noundef %0, ptr noundef %1, i64 noundef %2) #2 {
  %4 = alloca i64, align 8
  %5 = alloca ptr, align 8
  %6 = alloca ptr, align 8
  %7 = alloca i64, align 8
  %8 = alloca i64, align 8
  store ptr %0, ptr %5, align 8, !tbaa !41
  store ptr %1, ptr %6, align 8, !tbaa !50
  store i64 %2, ptr %7, align 8, !tbaa !51
  %9 = load i64, ptr %7, align 8, !tbaa !51
  %10 = icmp eq i64 %9, 0
  br i1 %10, label %11, label %12

11:                                               ; preds = %3
  store i64 0, ptr %4, align 8
  br label %62

12:                                               ; preds = %3
  %13 = load i64, ptr %7, align 8, !tbaa !51
  %14 = load ptr, ptr %5, align 8, !tbaa !41
  %15 = call i64 @agxbsizeof(ptr noundef %14)
  %16 = load ptr, ptr %5, align 8, !tbaa !41
  %17 = call i64 @agxblen(ptr noundef %16)
  %18 = sub i64 %15, %17
  %19 = icmp ugt i64 %13, %18
  br i1 %19, label %20, label %23

20:                                               ; preds = %12
  %21 = load ptr, ptr %5, align 8, !tbaa !41
  %22 = load i64, ptr %7, align 8, !tbaa !51
  call void @agxbmore(ptr noundef %21, i64 noundef %22)
  br label %23

23:                                               ; preds = %20, %12
  call void @llvm.lifetime.start.p0(i64 8, ptr %8) #14
  %24 = load ptr, ptr %5, align 8, !tbaa !41
  %25 = call i64 @agxblen(ptr noundef %24)
  store i64 %25, ptr %8, align 8, !tbaa !51
  %26 = load ptr, ptr %5, align 8, !tbaa !41
  %27 = call zeroext i1 @agxbuf_is_inline(ptr noundef %26)
  br i1 %27, label %28, label %45

28:                                               ; preds = %23
  %29 = load ptr, ptr %5, align 8, !tbaa !41
  %30 = getelementptr inbounds nuw %struct.agxbuf, ptr %29, i32 0, i32 0
  %31 = load i64, ptr %8, align 8, !tbaa !51
  %32 = getelementptr inbounds nuw [31 x i8], ptr %30, i64 0, i64 %31
  %33 = load ptr, ptr %6, align 8, !tbaa !50
  %34 = load i64, ptr %7, align 8, !tbaa !51
  call void @llvm.memcpy.p0.p0.i64(ptr align 1 %32, ptr align 1 %33, i64 %34, i1 false)
  %35 = load i64, ptr %7, align 8, !tbaa !51
  %36 = trunc i64 %35 to i8
  %37 = zext i8 %36 to i32
  %38 = load ptr, ptr %5, align 8, !tbaa !41
  %39 = getelementptr inbounds nuw %struct.agxbuf, ptr %38, i32 0, i32 0
  %40 = getelementptr inbounds nuw %struct.anon, ptr %39, i32 0, i32 4
  %41 = load i8, ptr %40, align 1, !tbaa !59
  %42 = zext i8 %41 to i32
  %43 = add nsw i32 %42, %37
  %44 = trunc i32 %43 to i8
  store i8 %44, ptr %40, align 1, !tbaa !59
  br label %60

45:                                               ; preds = %23
  %46 = load ptr, ptr %5, align 8, !tbaa !41
  %47 = getelementptr inbounds nuw %struct.agxbuf, ptr %46, i32 0, i32 0
  %48 = getelementptr inbounds nuw %struct.anon, ptr %47, i32 0, i32 0
  %49 = load ptr, ptr %48, align 8, !tbaa !59
  %50 = load i64, ptr %8, align 8, !tbaa !51
  %51 = getelementptr inbounds nuw i8, ptr %49, i64 %50
  %52 = load ptr, ptr %6, align 8, !tbaa !50
  %53 = load i64, ptr %7, align 8, !tbaa !51
  call void @llvm.memcpy.p0.p0.i64(ptr align 1 %51, ptr align 1 %52, i64 %53, i1 false)
  %54 = load i64, ptr %7, align 8, !tbaa !51
  %55 = load ptr, ptr %5, align 8, !tbaa !41
  %56 = getelementptr inbounds nuw %struct.agxbuf, ptr %55, i32 0, i32 0
  %57 = getelementptr inbounds nuw %struct.anon, ptr %56, i32 0, i32 1
  %58 = load i64, ptr %57, align 8, !tbaa !59
  %59 = add i64 %58, %54
  store i64 %59, ptr %57, align 8, !tbaa !59
  br label %60

60:                                               ; preds = %45, %28
  %61 = load i64, ptr %7, align 8, !tbaa !51
  store i64 %61, ptr %4, align 8
  call void @llvm.lifetime.end.p0(i64 8, ptr %8) #14
  br label %62

62:                                               ; preds = %60, %11
  %63 = load i64, ptr %4, align 8
  ret i64 %63
}

; Function Attrs: nounwind uwtable
define internal void @xdot_str(ptr noundef %0, ptr noundef %1, ptr noundef %2) #0 {
  %4 = alloca ptr, align 8
  %5 = alloca ptr, align 8
  %6 = alloca ptr, align 8
  %7 = alloca i32, align 4
  store ptr %0, ptr %4, align 8, !tbaa !3
  store ptr %1, ptr %5, align 8, !tbaa !50
  store ptr %2, ptr %6, align 8, !tbaa !50
  call void @llvm.lifetime.start.p0(i64 4, ptr %7) #14
  %8 = load ptr, ptr %4, align 8, !tbaa !3
  %9 = getelementptr inbounds nuw %struct.GVJ_s, ptr %8, i32 0, i32 4
  %10 = load ptr, ptr %9, align 8, !tbaa !12
  %11 = getelementptr inbounds nuw %struct.obj_state_s, ptr %10, i32 0, i32 3
  %12 = load i32, ptr %11, align 8, !tbaa !34
  store i32 %12, ptr %7, align 4, !tbaa !40
  %13 = load i32, ptr %7, align 4, !tbaa !40
  %14 = zext i32 %13 to i64
  %15 = getelementptr inbounds nuw [12 x ptr], ptr @xbufs, i64 0, i64 %14
  %16 = load ptr, ptr %15, align 8, !tbaa !41
  %17 = load ptr, ptr %5, align 8, !tbaa !50
  %18 = load ptr, ptr %6, align 8, !tbaa !50
  call void @xdot_str_xbuf(ptr noundef %16, ptr noundef %17, ptr noundef %18)
  call void @llvm.lifetime.end.p0(i64 4, ptr %7) #14
  ret void
}

; Function Attrs: nounwind uwtable
define internal void @xdot_point(ptr noundef %0, double %1, double %2) #0 {
  %4 = alloca %struct.pointf_s, align 8
  %5 = alloca ptr, align 8
  %6 = getelementptr inbounds nuw { double, double }, ptr %4, i32 0, i32 0
  store double %1, ptr %6, align 8
  %7 = getelementptr inbounds nuw { double, double }, ptr %4, i32 0, i32 1
  store double %2, ptr %7, align 8
  store ptr %0, ptr %5, align 8, !tbaa !41
  %8 = load ptr, ptr %5, align 8, !tbaa !41
  %9 = getelementptr inbounds nuw %struct.pointf_s, ptr %4, i32 0, i32 0
  %10 = load double, ptr %9, align 8, !tbaa !52
  call void @xdot_fmt_num(ptr noundef %8, double noundef %10)
  %11 = load ptr, ptr %5, align 8, !tbaa !41
  %12 = getelementptr inbounds nuw %struct.pointf_s, ptr %4, i32 0, i32 1
  %13 = load double, ptr %12, align 8, !tbaa !53
  %14 = load ptr, ptr @xd, align 8, !tbaa !41
  %15 = getelementptr inbounds nuw %struct.xdot_state_t, ptr %14, i32 0, i32 12
  %16 = load double, ptr %15, align 8, !tbaa !54
  %17 = call double @yDir(double noundef %13, double noundef %16)
  call void @xdot_fmt_num(ptr noundef %11, double noundef %17)
  ret void
}

; Function Attrs: inlinehint nounwind uwtable
define internal i64 @agxbput(ptr noundef %0, ptr noundef %1) #2 {
  %3 = alloca ptr, align 8
  %4 = alloca ptr, align 8
  %5 = alloca i64, align 8
  store ptr %0, ptr %3, align 8, !tbaa !41
  store ptr %1, ptr %4, align 8, !tbaa !50
  call void @llvm.lifetime.start.p0(i64 8, ptr %5) #14
  %6 = load ptr, ptr %4, align 8, !tbaa !50
  %7 = call i64 @strlen(ptr noundef %6) #15
  store i64 %7, ptr %5, align 8, !tbaa !51
  %8 = load ptr, ptr %3, align 8, !tbaa !41
  %9 = load ptr, ptr %4, align 8, !tbaa !50
  %10 = load i64, ptr %5, align 8, !tbaa !51
  %11 = call i64 @agxbput_n(ptr noundef %8, ptr noundef %9, i64 noundef %10)
  call void @llvm.lifetime.end.p0(i64 8, ptr %5) #14
  ret i64 %11
}

; Function Attrs: nounwind uwtable
define void @core_loadimage_xdot(ptr noundef %0, ptr noundef %1, ptr noundef byval(%struct.boxf) align 8 %2, i1 noundef zeroext %3) #0 {
  %5 = alloca ptr, align 8
  %6 = alloca ptr, align 8
  %7 = alloca i8, align 1
  %8 = alloca i32, align 4
  store ptr %0, ptr %5, align 8, !tbaa !3
  store ptr %1, ptr %6, align 8, !tbaa !8
  %9 = zext i1 %3 to i8
  store i8 %9, ptr %7, align 1, !tbaa !10
  call void @llvm.lifetime.start.p0(i64 4, ptr %8) #14
  %10 = load ptr, ptr %5, align 8, !tbaa !3
  %11 = getelementptr inbounds nuw %struct.GVJ_s, ptr %10, i32 0, i32 4
  %12 = load ptr, ptr %11, align 8, !tbaa !12
  %13 = getelementptr inbounds nuw %struct.obj_state_s, ptr %12, i32 0, i32 3
  %14 = load i32, ptr %13, align 8, !tbaa !34
  store i32 %14, ptr %8, align 4, !tbaa !40
  %15 = load i32, ptr %8, align 4, !tbaa !40
  %16 = zext i32 %15 to i64
  %17 = getelementptr inbounds nuw [12 x ptr], ptr @xbufs, i64 0, i64 %16
  %18 = load ptr, ptr %17, align 8, !tbaa !41
  %19 = call i64 @agxbput(ptr noundef %18, ptr noundef @.str)
  %20 = load i32, ptr %8, align 4, !tbaa !40
  %21 = zext i32 %20 to i64
  %22 = getelementptr inbounds nuw [12 x ptr], ptr @xbufs, i64 0, i64 %21
  %23 = load ptr, ptr %22, align 8, !tbaa !41
  %24 = getelementptr inbounds nuw %struct.boxf, ptr %2, i32 0, i32 0
  %25 = getelementptr inbounds nuw { double, double }, ptr %24, i32 0, i32 0
  %26 = load double, ptr %25, align 8
  %27 = getelementptr inbounds nuw { double, double }, ptr %24, i32 0, i32 1
  %28 = load double, ptr %27, align 8
  call void @xdot_point(ptr noundef %23, double %26, double %28)
  %29 = load i32, ptr %8, align 4, !tbaa !40
  %30 = zext i32 %29 to i64
  %31 = getelementptr inbounds nuw [12 x ptr], ptr @xbufs, i64 0, i64 %30
  %32 = load ptr, ptr %31, align 8, !tbaa !41
  %33 = getelementptr inbounds nuw %struct.boxf, ptr %2, i32 0, i32 1
  %34 = getelementptr inbounds nuw %struct.pointf_s, ptr %33, i32 0, i32 0
  %35 = load double, ptr %34, align 8, !tbaa !42
  %36 = getelementptr inbounds nuw %struct.boxf, ptr %2, i32 0, i32 0
  %37 = getelementptr inbounds nuw %struct.pointf_s, ptr %36, i32 0, i32 0
  %38 = load double, ptr %37, align 8, !tbaa !43
  %39 = fsub double %35, %38
  call void @xdot_fmt_num(ptr noundef %32, double noundef %39)
  %40 = load i32, ptr %8, align 4, !tbaa !40
  %41 = zext i32 %40 to i64
  %42 = getelementptr inbounds nuw [12 x ptr], ptr @xbufs, i64 0, i64 %41
  %43 = load ptr, ptr %42, align 8, !tbaa !41
  %44 = getelementptr inbounds nuw %struct.boxf, ptr %2, i32 0, i32 1
  %45 = getelementptr inbounds nuw %struct.pointf_s, ptr %44, i32 0, i32 1
  %46 = load double, ptr %45, align 8, !tbaa !44
  %47 = getelementptr inbounds nuw %struct.boxf, ptr %2, i32 0, i32 0
  %48 = getelementptr inbounds nuw %struct.pointf_s, ptr %47, i32 0, i32 1
  %49 = load double, ptr %48, align 8, !tbaa !45
  %50 = fsub double %46, %49
  call void @xdot_fmt_num(ptr noundef %43, double noundef %50)
  %51 = load ptr, ptr %5, align 8, !tbaa !3
  %52 = load ptr, ptr %6, align 8, !tbaa !8
  %53 = getelementptr inbounds nuw %struct.usershape_s, ptr %52, i32 0, i32 1
  %54 = load ptr, ptr %53, align 8, !tbaa !46
  call void @xdot_str(ptr noundef %51, ptr noundef @.str.1, ptr noundef %54)
  call void @llvm.lifetime.end.p0(i64 4, ptr %8) #14
  ret void
}