; Function Attrs: nounwind uwtable
define void @core_loadimage_xdot(ptr noundef readonly captures(none) %0, ptr noundef readonly captures(none) %1, ptr noundef readonly byval(%struct.boxf) align 8 captures(none) %2, i1 noundef zeroext %3) local_unnamed_addr #0 {
  %5 = getelementptr inbounds nuw i8, ptr %0, i64 32
  %6 = load ptr, ptr %5, align 8, !tbaa !3
  %7 = getelementptr inbounds nuw i8, ptr %6, i64 24
  %8 = load i32, ptr %7, align 8, !tbaa !30
  %9 = zext i32 %8 to i64
  %10 = getelementptr inbounds nuw [12 x ptr], ptr @xbufs, i64 0, i64 %9
  %11 = load ptr, ptr %10, align 8, !tbaa !36
  %12 = getelementptr i8, ptr %11, i64 31
  %.val.i.i.i = load i8, ptr %12, align 1, !tbaa !37
  %.not.i.i.i = icmp eq i8 %.val.i.i.i, -1
  br i1 %.not.i.i.i, label %14, label %agxbsizeof.exit.i.i

agxbsizeof.exit.i.i:                              ; preds = %4
  %13 = zext i8 %.val.i.i.i to i64
  br label %agxblen.exit.i.i

14:                                               ; preds = %4
  %15 = getelementptr inbounds nuw i8, ptr %11, i64 16
  %16 = load i64, ptr %15, align 8, !tbaa !37
  %17 = getelementptr inbounds nuw i8, ptr %11, i64 8
  %18 = load i64, ptr %17, align 8, !tbaa !37
  br label %agxblen.exit.i.i

agxblen.exit.i.i:                                 ; preds = %14, %agxbsizeof.exit.i.i
  %.0.i30.i.i = phi i64 [ 31, %agxbsizeof.exit.i.i ], [ %16, %14 ]
  %.0.i24.i.i = phi i64 [ %13, %agxbsizeof.exit.i.i ], [ %18, %14 ]
  %19 = sub i64 %.0.i30.i.i, %.0.i24.i.i
  %20 = icmp ult i64 %19, 2
  br i1 %20, label %21, label %22

21:                                               ; preds = %agxblen.exit.i.i
  tail call fastcc void @agxbmore(ptr noundef nonnull %11, i64 noundef 2)
  %.val.i25.pre.i.i = load i8, ptr %12, align 1, !tbaa !37
  br label %22

22:                                               ; preds = %21, %agxblen.exit.i.i
  %.val.i25.i.i = phi i8 [ %.val.i25.pre.i.i, %21 ], [ %.val.i.i.i, %agxblen.exit.i.i ]
  %.not.i26.i.i = icmp eq i8 %.val.i25.i.i, -1
  br i1 %.not.i26.i.i, label %28, label %23

23:                                               ; preds = %22
  %24 = zext i8 %.val.i25.i.i to i64
  %25 = getelementptr inbounds nuw [31 x i8], ptr %11, i64 0, i64 %24
  store i16 8265, ptr %25, align 1
  %26 = load i8, ptr %12, align 1, !tbaa !37
  %27 = add i8 %26, 2
  store i8 %27, ptr %12, align 1, !tbaa !37
  br label %agxbput.exit

28:                                               ; preds = %22
  %29 = getelementptr inbounds nuw i8, ptr %11, i64 8
  %30 = load i64, ptr %29, align 8, !tbaa !37
  %31 = load ptr, ptr %11, align 8, !tbaa !37
  %32 = getelementptr inbounds nuw i8, ptr %31, i64 %30
  store i16 8265, ptr %32, align 1
  %33 = load i64, ptr %29, align 8, !tbaa !37
  %34 = add i64 %33, 2
  store i64 %34, ptr %29, align 8, !tbaa !37
  br label %agxbput.exit

agxbput.exit:                                     ; preds = %23, %28
  %35 = load double, ptr %2, align 8
  %36 = getelementptr inbounds nuw i8, ptr %2, i64 8
  %37 = load double, ptr %36, align 8
  tail call fastcc void @xdot_fmt_num(ptr noundef nonnull %11, double noundef %35)
  %38 = load ptr, ptr @xd, align 8, !tbaa !36
  %39 = getelementptr inbounds nuw i8, ptr %38, i64 96
  %40 = load double, ptr %39, align 8, !tbaa !38
  %41 = tail call double @yDir(double noundef %37, double noundef %40) #18
  tail call fastcc void @xdot_fmt_num(ptr noundef nonnull %11, double noundef %41)
  %42 = getelementptr inbounds nuw i8, ptr %2, i64 16
  %43 = load double, ptr %42, align 8, !tbaa !42
  %44 = fsub double %43, %35
  tail call fastcc void @xdot_fmt_num(ptr noundef nonnull %11, double noundef %44)
  %45 = getelementptr inbounds nuw i8, ptr %2, i64 24
  %46 = load double, ptr %45, align 8, !tbaa !43
  %47 = fsub double %46, %37
  tail call fastcc void @xdot_fmt_num(ptr noundef nonnull %11, double noundef %47)
  %48 = getelementptr inbounds nuw i8, ptr %1, i64 16
  %49 = load ptr, ptr %48, align 8, !tbaa !44
  %.val = load ptr, ptr %5, align 8, !tbaa !3
  %50 = getelementptr i8, ptr %.val, i64 24
  %.val.val = load i32, ptr %50, align 8, !tbaa !30
  %51 = zext i32 %.val.val to i64
  %52 = getelementptr inbounds nuw [12 x ptr], ptr @xbufs, i64 0, i64 %51
  %53 = load ptr, ptr %52, align 8, !tbaa !36
  %54 = tail call i64 @strlen(ptr noundef nonnull dereferenceable(1) %49) #19
  tail call void (ptr, ptr, ...) @agxbprint(ptr noundef %53, ptr noundef nonnull @.str.15, ptr noundef nonnull @.str.1, i64 noundef %54, ptr noundef nonnull %49)
  ret void
}